target datalayout = "e-m:e-p270:32:32-p271:32:32-p272:64:64-i64:64-i128:128-f80:128-n8:16:32:64-S128"
target triple = "x86_64-pc-linux-gnu"

%"class.std::__cxx11::basic_string" = type { %"struct.std::__cxx11::basic_string<char>::_Alloc_hider", i64, %union.anon }
%"struct.std::__cxx11::basic_string<char>::_Alloc_hider" = type { ptr }
%union.anon = type { i64, [8 x i8] }

@_ZN12colvarmodule9errorCodeE = global i32 0, align 4
@.str.73 = private unnamed_addr constant [24 x i8] c"Error: bias not found: \00", align 1

; Function Attrs: mustprogress nounwind uwtable
define linkonce_odr noundef i32 @_ZN12colvarmodule9get_errorEv() #5 comdat align 2 {
  %1 = load i32, ptr @_ZN12colvarmodule9errorCodeE, align 4
  ret i32 %1
}

; Function Attrs: mustprogress uwtable
define noundef i32 @_ZN12colvarmodule20change_configurationERKNSt7__cxx1112basic_stringIcSt11char_traitsIcESaIcEEES7_(ptr noundef nonnull align 8 dereferenceable(616) %0, ptr noundef nonnull align 8 dereferenceable(32) %1, ptr noundef nonnull align 8 dereferenceable(32) %2) #4 align 2 personality ptr @__gxx_personality_v0 {
  %4 = alloca i32, align 4
  %5 = alloca ptr, align 8
  %6 = alloca ptr, align 8
  %7 = alloca ptr, align 8
  %8 = alloca ptr, align 8
  %9 = alloca %"class.std::__cxx11::basic_string", align 8
  %10 = alloca ptr, align 8
  %11 = alloca i32, align 4
  store ptr %0, ptr %5, align 8
  store ptr %1, ptr %6, align 8
  store ptr %2, ptr %7, align 8
  call void @_ZN12colvarmodule14increase_depthEv()
  %12 = load ptr, ptr %6, align 8
  %13 = call noundef ptr @_ZN12colvarmodule12bias_by_nameERKNSt7__cxx1112basic_stringIcSt11char_traitsIcESaIcEEE(ptr noundef nonnull align 8 dereferenceable(32) %12)
  store ptr %13, ptr %8, align 8
  %14 = load ptr, ptr %8, align 8
  %15 = icmp eq ptr %14, null
  br i1 %15, label %16, label %24

16:                                               ; preds = %3
  %17 = load ptr, ptr %6, align 8
  call void @_ZStplIcSt11char_traitsIcESaIcEENSt7__cxx1112basic_stringIT_T0_T1_EEPKS5_RKS8_(ptr dead_on_unwind writable sret(%"class.std::__cxx11::basic_string") align 8 %9, ptr noundef @.str.73, ptr noundef nonnull align 8 dereferenceable(32) %17)
  %18 = invoke noundef i32 @_ZN12colvarmodule5errorERKNSt7__cxx1112basic_stringIcSt11char_traitsIcESaIcEEEi(ptr noundef nonnull align 8 dereferenceable(32) %9, i32 noundef -1)
          to label %19 unwind label %20

19:                                               ; preds = %16
  call void @_ZNSt7__cxx1112basic_stringIcSt11char_traitsIcESaIcEED1Ev(ptr noundef nonnull align 8 dereferenceable(32) %9) #3
  store i32 1, ptr %4, align 4
  br label %34

20:                                               ; preds = %16
  %21 = landingpad { ptr, i32 }
          cleanup
  %22 = extractvalue { ptr, i32 } %21, 0
  store ptr %22, ptr %10, align 8
  %23 = extractvalue { ptr, i32 } %21, 1
  store i32 %23, ptr %11, align 4
  call void @_ZNSt7__cxx1112basic_stringIcSt11char_traitsIcESaIcEED1Ev(ptr noundef nonnull align 8 dereferenceable(32) %9) #3
  br label %36

24:                                               ; preds = %3
  %25 = load ptr, ptr %8, align 8
  %26 = load ptr, ptr %7, align 8
  %27 = load ptr, ptr %25, align 8
  %28 = getelementptr inbounds ptr, ptr %27, i64 5
  %29 = load ptr, ptr %28, align 8
  %30 = call noundef i32 %29(ptr noundef nonnull align 8 dereferenceable(312) %25, ptr noundef nonnull align 8 dereferenceable(32) %26)
  call void @_ZN12colvarmodule14decrease_depthEv()
  %31 = call noundef i32 @_ZN12colvarmodule9get_errorEv()
  %32 = icmp ne i32 %31, 0
  %33 = select i1 %32, i32 1, i32 0
  store i32 %33, ptr %4, align 4
  br label %34

34:                                               ; preds = %24, %19
  %35 = load i32, ptr %4, align 4
  ret i32 %35

36:                                               ; preds = %20
  %37 = load ptr, ptr %10, align 8
  %38 = load i32, ptr %11, align 4
  %39 = insertvalue { ptr, i32 } poison, ptr %37, 0
  %40 = insertvalue { ptr, i32 } %39, i32 %38, 1
  resume { ptr, i32 } %40
}