; Function Attrs: mustprogress uwtable
define noundef i32 @_ZN12colvarmodule20change_configurationERKNSt7__cxx1112basic_stringIcSt11char_traitsIcESaIcEEES7_(ptr nocapture noundef nonnull readnone align 8 dereferenceable(616) %0, ptr noundef nonnull align 8 dereferenceable(32) %1, ptr noundef nonnull align 8 dereferenceable(32) %2) local_unnamed_addr #3 align 2 personality ptr @__gxx_personality_v0 {
  %4 = alloca %"class.std::__cxx11::basic_string", align 8
  tail call void @_ZN12colvarmodule14increase_depthEv()
  %5 = tail call noundef ptr @_ZN12colvarmodule12bias_by_nameERKNSt7__cxx1112basic_stringIcSt11char_traitsIcESaIcEEE(ptr noundef nonnull align 8 dereferenceable(32) %1)
  %6 = icmp eq ptr %5, null
  br i1 %6, label %7, label %12

7:                                                ; preds = %3
  call void @_ZStplIcSt11char_traitsIcESaIcEENSt7__cxx1112basic_stringIT_T0_T1_EEPKS5_RKS8_(ptr dead_on_unwind nonnull writable sret(%"class.std::__cxx11::basic_string") align 8 %4, ptr noundef nonnull @.str.73, ptr noundef nonnull align 8 dereferenceable(32) %1)
  %8 = invoke noundef i32 @_ZN12colvarmodule5errorERKNSt7__cxx1112basic_stringIcSt11char_traitsIcESaIcEEEi(ptr noundef nonnull align 8 dereferenceable(32) %4, i32 noundef -1)
          to label %9 unwind label %10

9:                                                ; preds = %7
  call void @_ZNSt7__cxx1112basic_stringIcSt11char_traitsIcESaIcEED1Ev(ptr noundef nonnull align 8 dereferenceable(32) %4) #24
  br label %19

10:                                               ; preds = %7
  %11 = landingpad { ptr, i32 }
          cleanup
  call void @_ZNSt7__cxx1112basic_stringIcSt11char_traitsIcESaIcEED1Ev(ptr noundef nonnull align 8 dereferenceable(32) %4) #24
  resume { ptr, i32 } %11

12:                                               ; preds = %3
  %13 = load ptr, ptr %5, align 8
  %14 = getelementptr inbounds i8, ptr %13, i64 40
  %15 = load ptr, ptr %14, align 8
  %16 = tail call noundef i32 %15(ptr noundef nonnull align 8 dereferenceable(312) %5, ptr noundef nonnull align 8 dereferenceable(32) %2)
  tail call void @_ZN12colvarmodule14decrease_depthEv()
  %17 = load i32, ptr @_ZN12colvarmodule9errorCodeE, align 4
  %.not = icmp ne i32 %17, 0
  %18 = zext i1 %.not to i32
  br label %19

19:                                               ; preds = %12, %9
  %.0 = phi i32 [ 1, %9 ], [ %18, %12 ]
  ret i32 %.0
}